target datalayout = "e-m:e-p270:32:32-p271:32:32-p272:64:64-i64:64-i128:128-f80:128-n8:16:32:64-S128"
target triple = "x86_64-pc-linux-gnu"

%struct.Nwk_Obj_t_ = type { ptr, ptr, ptr, %union.anon, i32, i32, i32, i32, float, float, float, i32, i32, i32, ptr }
%union.anon = type { ptr }
%struct.Nwk_Man_t_ = type { ptr, ptr, ptr, ptr, ptr, [5 x i32], i32, ptr, ptr, ptr, ptr, ptr, i32, i32, i32, i32, i32 }

@.str = private unnamed_addr constant [49 x i8] c"Nwk_ObjPatchFanin(); Error! Node %d is not among\00", align 1
@.str.1 = private unnamed_addr constant [27 x i8] c" the fanins of node %d...\0A\00", align 1

; Function Attrs: nounwind uwtable
define internal ptr @Nwk_ManReallocNode(ptr noundef %0) #0 {
  %2 = alloca ptr, align 8
  %3 = alloca ptr, align 8
  store ptr %0, ptr %2, align 8
  %4 = load ptr, ptr %2, align 8
  %5 = getelementptr inbounds %struct.Nwk_Obj_t_, ptr %4, i32 0, i32 14
  %6 = load ptr, ptr %5, align 8
  store ptr %6, ptr %3, align 8
  %7 = load ptr, ptr %2, align 8
  %8 = getelementptr inbounds %struct.Nwk_Obj_t_, ptr %7, i32 0, i32 0
  %9 = load ptr, ptr %8, align 8
  %10 = getelementptr inbounds %struct.Nwk_Man_t_, ptr %9, i32 0, i32 10
  %11 = load ptr, ptr %10, align 8
  %12 = load ptr, ptr %2, align 8
  %13 = getelementptr inbounds %struct.Nwk_Obj_t_, ptr %12, i32 0, i32 13
  %14 = load i32, ptr %13, align 4
  %15 = mul nsw i32 2, %14
  %16 = sext i32 %15 to i64
  %17 = mul i64 %16, 8
  %18 = trunc i64 %17 to i32
  %19 = call ptr @Aig_MmFlexEntryFetch(ptr noundef %11, i32 noundef %18)
  %20 = load ptr, ptr %2, align 8
  %21 = getelementptr inbounds %struct.Nwk_Obj_t_, ptr %20, i32 0, i32 14
  store ptr %19, ptr %21, align 8
  %22 = load ptr, ptr %2, align 8
  %23 = getelementptr inbounds %struct.Nwk_Obj_t_, ptr %22, i32 0, i32 14
  %24 = load ptr, ptr %23, align 8
  %25 = load ptr, ptr %3, align 8
  %26 = load ptr, ptr %2, align 8
  %27 = getelementptr inbounds %struct.Nwk_Obj_t_, ptr %26, i32 0, i32 13
  %28 = load i32, ptr %27, align 4
  %29 = sext i32 %28 to i64
  %30 = mul i64 %29, 8
  call void @llvm.memmove.p0.p0.i64(ptr align 8 %24, ptr align 8 %25, i64 %30, i1 false)
  %31 = load ptr, ptr %2, align 8
  %32 = getelementptr inbounds %struct.Nwk_Obj_t_, ptr %31, i32 0, i32 13
  %33 = load i32, ptr %32, align 4
  %34 = mul nsw i32 %33, 2
  store i32 %34, ptr %32, align 4
  %35 = load ptr, ptr %2, align 8
  %36 = getelementptr inbounds %struct.Nwk_Obj_t_, ptr %35, i32 0, i32 0
  %37 = load ptr, ptr %36, align 8
  %38 = getelementptr inbounds %struct.Nwk_Man_t_, ptr %37, i32 0, i32 13
  %39 = load i32, ptr %38, align 4
  %40 = add nsw i32 %39, 1
  store i32 %40, ptr %38, align 4
  ret ptr null
}

; Function Attrs: nounwind uwtable
define internal i32 @Nwk_ObjReallocIsNeeded(ptr noundef %0) #0 {
  %2 = alloca ptr, align 8
  store ptr %0, ptr %2, align 8
  %3 = load ptr, ptr %2, align 8
  %4 = getelementptr inbounds %struct.Nwk_Obj_t_, ptr %3, i32 0, i32 11
  %5 = load i32, ptr %4, align 4
  %6 = load ptr, ptr %2, align 8
  %7 = getelementptr inbounds %struct.Nwk_Obj_t_, ptr %6, i32 0, i32 12
  %8 = load i32, ptr %7, align 8
  %9 = add nsw i32 %5, %8
  %10 = load ptr, ptr %2, align 8
  %11 = getelementptr inbounds %struct.Nwk_Obj_t_, ptr %10, i32 0, i32 13
  %12 = load i32, ptr %11, align 4
  %13 = icmp eq i32 %9, %12
  %14 = zext i1 %13 to i32
  ret i32 %14
}

; Function Attrs: nounwind uwtable
define i32 @Nwk_ObjFindFanin(ptr noundef %0, ptr noundef %1) #0 {
  %3 = alloca i32, align 4
  %4 = alloca ptr, align 8
  %5 = alloca ptr, align 8
  %6 = alloca ptr, align 8
  %7 = alloca i32, align 4
  store ptr %0, ptr %4, align 8
  store ptr %1, ptr %5, align 8
  store i32 0, ptr %7, align 4
  br label %8

8:                                                ; preds = %32, %2
  %9 = load i32, ptr %7, align 4
  %10 = load ptr, ptr %4, align 8
  %11 = getelementptr inbounds %struct.Nwk_Obj_t_, ptr %10, i32 0, i32 11
  %12 = load i32, ptr %11, align 4
  %13 = icmp slt i32 %9, %12
  br i1 %13, label %14, label %23

14:                                               ; preds = %8
  %15 = load ptr, ptr %4, align 8
  %16 = getelementptr inbounds %struct.Nwk_Obj_t_, ptr %15, i32 0, i32 14
  %17 = load ptr, ptr %16, align 8
  %18 = load i32, ptr %7, align 4
  %19 = sext i32 %18 to i64
  %20 = getelementptr inbounds ptr, ptr %17, i64 %19
  %21 = load ptr, ptr %20, align 8
  store ptr %21, ptr %6, align 8
  %22 = icmp ne ptr %21, null
  br label %23

23:                                               ; preds = %14, %8
  %24 = phi i1 [ false, %8 ], [ %22, %14 ]
  br i1 %24, label %25, label %35

25:                                               ; preds = %23
  %26 = load ptr, ptr %6, align 8
  %27 = load ptr, ptr %5, align 8
  %28 = icmp eq ptr %26, %27
  br i1 %28, label %29, label %31

29:                                               ; preds = %25
  %30 = load i32, ptr %7, align 4
  store i32 %30, ptr %3, align 4
  br label %36

31:                                               ; preds = %25
  br label %32

32:                                               ; preds = %31
  %33 = load i32, ptr %7, align 4
  %34 = add nsw i32 %33, 1
  store i32 %34, ptr %7, align 4
  br label %8, !llvm.loop !7

35:                                               ; preds = %23
  store i32 -1, ptr %3, align 4
  br label %36

36:                                               ; preds = %35, %29
  %37 = load i32, ptr %3, align 4
  ret i32 %37
}

; Function Attrs: nounwind uwtable
define void @Nwk_ObjPatchFanin(ptr noundef %0, ptr noundef %1, ptr noundef %2) #0 {
  %4 = alloca ptr, align 8
  %5 = alloca ptr, align 8
  %6 = alloca ptr, align 8
  %7 = alloca i32, align 4
  %8 = alloca i32, align 4
  %9 = alloca i32, align 4
  %10 = alloca i32, align 4
  store ptr %0, ptr %4, align 8
  store ptr %1, ptr %5, align 8
  store ptr %2, ptr %6, align 8
  %11 = load ptr, ptr %4, align 8
  %12 = load ptr, ptr %5, align 8
  %13 = call i32 @Nwk_ObjFindFanin(ptr noundef %11, ptr noundef %12)
  store i32 %13, ptr %9, align 4
  %14 = load i32, ptr %9, align 4
  %15 = icmp eq i32 %14, -1
  br i1 %15, label %16, label %25

16:                                               ; preds = %3
  %17 = load ptr, ptr %5, align 8
  %18 = getelementptr inbounds %struct.Nwk_Obj_t_, ptr %17, i32 0, i32 5
  %19 = load i32, ptr %18, align 4
  %20 = call i32 (ptr, ...) @printf(ptr noundef @.str, i32 noundef %19)
  %21 = load ptr, ptr %4, align 8
  %22 = getelementptr inbounds %struct.Nwk_Obj_t_, ptr %21, i32 0, i32 5
  %23 = load i32, ptr %22, align 4
  %24 = call i32 (ptr, ...) @printf(ptr noundef @.str.1, i32 noundef %23)
  br label %102

25:                                               ; preds = %3
  %26 = load ptr, ptr %6, align 8
  %27 = load ptr, ptr %4, align 8
  %28 = getelementptr inbounds %struct.Nwk_Obj_t_, ptr %27, i32 0, i32 14
  %29 = load ptr, ptr %28, align 8
  %30 = load i32, ptr %9, align 4
  %31 = sext i32 %30 to i64
  %32 = getelementptr inbounds ptr, ptr %29, i64 %31
  store ptr %26, ptr %32, align 8
  %33 = load ptr, ptr %5, align 8
  %34 = getelementptr inbounds %struct.Nwk_Obj_t_, ptr %33, i32 0, i32 11
  %35 = load i32, ptr %34, align 4
  %36 = load ptr, ptr %5, align 8
  %37 = getelementptr inbounds %struct.Nwk_Obj_t_, ptr %36, i32 0, i32 12
  %38 = load i32, ptr %37, align 8
  %39 = add nsw i32 %35, %38
  store i32 %39, ptr %10, align 4
  %40 = load ptr, ptr %5, align 8
  %41 = getelementptr inbounds %struct.Nwk_Obj_t_, ptr %40, i32 0, i32 11
  %42 = load i32, ptr %41, align 4
  store i32 %42, ptr %7, align 4
  store i32 %42, ptr %8, align 4
  br label %43

43:                                               ; preds = %73, %25
  %44 = load i32, ptr %7, align 4
  %45 = load i32, ptr %10, align 4
  %46 = icmp slt i32 %44, %45
  br i1 %46, label %47, label %76

47:                                               ; preds = %43
  %48 = load ptr, ptr %5, align 8
  %49 = getelementptr inbounds %struct.Nwk_Obj_t_, ptr %48, i32 0, i32 14
  %50 = load ptr, ptr %49, align 8
  %51 = load i32, ptr %7, align 4
  %52 = sext i32 %51 to i64
  %53 = getelementptr inbounds ptr, ptr %50, i64 %52
  %54 = load ptr, ptr %53, align 8
  %55 = load ptr, ptr %4, align 8
  %56 = icmp ne ptr %54, %55
  br i1 %56, label %57, label %72

57:                                               ; preds = %47
  %58 = load ptr, ptr %5, align 8
  %59 = getelementptr inbounds %struct.Nwk_Obj_t_, ptr %58, i32 0, i32 14
  %60 = load ptr, ptr %59, align 8
  %61 = load i32, ptr %7, align 4
  %62 = sext i32 %61 to i64
  %63 = getelementptr inbounds ptr, ptr %60, i64 %62
  %64 = load ptr, ptr %63, align 8
  %65 = load ptr, ptr %5, align 8
  %66 = getelementptr inbounds %struct.Nwk_Obj_t_, ptr %65, i32 0, i32 14
  %67 = load ptr, ptr %66, align 8
  %68 = load i32, ptr %8, align 4
  %69 = add nsw i32 %68, 1
  store i32 %69, ptr %8, align 4
  %70 = sext i32 %68 to i64
  %71 = getelementptr inbounds ptr, ptr %67, i64 %70
  store ptr %64, ptr %71, align 8
  br label %72

72:                                               ; preds = %57, %47
  br label %73

73:                                               ; preds = %72
  %74 = load i32, ptr %7, align 4
  %75 = add nsw i32 %74, 1
  store i32 %75, ptr %7, align 4
  br label %43, !llvm.loop !12

76:                                               ; preds = %43
  %77 = load ptr, ptr %5, align 8
  %78 = getelementptr inbounds %struct.Nwk_Obj_t_, ptr %77, i32 0, i32 12
  %79 = load i32, ptr %78, align 8
  %80 = add nsw i32 %79, -1
  store i32 %80, ptr %78, align 8
  %81 = load ptr, ptr %6, align 8
  %82 = call i32 @Nwk_ObjReallocIsNeeded(ptr noundef %81)
  %83 = icmp ne i32 %82, 0
  br i1 %83, label %84, label %87

84:                                               ; preds = %76
  %85 = load ptr, ptr %6, align 8
  %86 = call ptr @Nwk_ManReallocNode(ptr noundef %85)
  br label %87

87:                                               ; preds = %84, %76
  %88 = load ptr, ptr %4, align 8
  %89 = load ptr, ptr %6, align 8
  %90 = getelementptr inbounds %struct.Nwk_Obj_t_, ptr %89, i32 0, i32 14
  %91 = load ptr, ptr %90, align 8
  %92 = load ptr, ptr %6, align 8
  %93 = getelementptr inbounds %struct.Nwk_Obj_t_, ptr %92, i32 0, i32 11
  %94 = load i32, ptr %93, align 4
  %95 = load ptr, ptr %6, align 8
  %96 = getelementptr inbounds %struct.Nwk_Obj_t_, ptr %95, i32 0, i32 12
  %97 = load i32, ptr %96, align 8
  %98 = add nsw i32 %97, 1
  store i32 %98, ptr %96, align 8
  %99 = add nsw i32 %94, %97
  %100 = sext i32 %99 to i64
  %101 = getelementptr inbounds ptr, ptr %91, i64 %100
  store ptr %88, ptr %101, align 8
  br label %102

102:                                              ; preds = %87, %16
  ret void
}