; Function Attrs: nounwind uwtable
define void @Nwk_ObjPatchFanin(ptr noundef %0, ptr noundef %1, ptr noundef %2) local_unnamed_addr #0 {
  %4 = getelementptr inbounds nuw i8, ptr %0, i64 60
  %5 = load i32, ptr %4, align 4
  %6 = icmp sgt i32 %5, 0
  br i1 %6, label %.lr.ph.i, label %Nwk_ObjFindFanin.exit.thread

.lr.ph.i:                                         ; preds = %3
  %7 = getelementptr inbounds nuw i8, ptr %0, i64 72
  %8 = load ptr, ptr %7, align 8
  %wide.trip.count.i = zext nneg i32 %5 to i64
  br label %9

9:                                                ; preds = %14, %.lr.ph.i
  %indvars.iv.i = phi i64 [ 0, %.lr.ph.i ], [ %indvars.iv.next.i, %14 ]
  %10 = getelementptr inbounds nuw ptr, ptr %8, i64 %indvars.iv.i
  %11 = load ptr, ptr %10, align 8
  %.not.i = icmp eq ptr %11, null
  br i1 %.not.i, label %Nwk_ObjFindFanin.exit.thread, label %12

12:                                               ; preds = %9
  %13 = icmp eq ptr %11, %1
  br i1 %13, label %Nwk_ObjFindFanin.exit, label %14

14:                                               ; preds = %12
  %indvars.iv.next.i = add nuw nsw i64 %indvars.iv.i, 1
  %exitcond.not.i = icmp eq i64 %indvars.iv.next.i, %wide.trip.count.i
  br i1 %exitcond.not.i, label %Nwk_ObjFindFanin.exit.thread, label %9, !llvm.loop !7

Nwk_ObjFindFanin.exit.thread:                     ; preds = %14, %9, %3
  %15 = getelementptr inbounds nuw i8, ptr %1, i64 36
  %16 = load i32, ptr %15, align 4
  %17 = tail call i32 (ptr, ...) @printf(ptr noundef nonnull dereferenceable(1) @.str, i32 noundef %16)
  %18 = getelementptr inbounds nuw i8, ptr %0, i64 36
  %19 = load i32, ptr %18, align 4
  %20 = tail call i32 (ptr, ...) @printf(ptr noundef nonnull dereferenceable(1) @.str.1, i32 noundef %19)
  br label %75

Nwk_ObjFindFanin.exit:                            ; preds = %12
  %sext = shl i64 %indvars.iv.i, 32
  %21 = ashr exact i64 %sext, 29
  %22 = getelementptr inbounds i8, ptr %8, i64 %21
  store ptr %2, ptr %22, align 8
  %23 = getelementptr inbounds nuw i8, ptr %1, i64 64
  %24 = load i32, ptr %23, align 8
  %25 = icmp sgt i32 %24, 0
  br i1 %25, label %.lr.ph, label %._crit_edge

.lr.ph:                                           ; preds = %Nwk_ObjFindFanin.exit
  %26 = getelementptr inbounds nuw i8, ptr %1, i64 60
  %27 = load i32, ptr %26, align 4
  %28 = add nsw i32 %24, %27
  %29 = getelementptr inbounds nuw i8, ptr %1, i64 72
  %30 = sext i32 %27 to i64
  %31 = sext i32 %28 to i64
  br label %32

32:                                               ; preds = %.lr.ph, %40
  %indvars.iv = phi i64 [ %30, %.lr.ph ], [ %indvars.iv.next, %40 ]
  %.02733 = phi i32 [ %27, %.lr.ph ], [ %.1, %40 ]
  %33 = load ptr, ptr %29, align 8
  %34 = getelementptr inbounds ptr, ptr %33, i64 %indvars.iv
  %35 = load ptr, ptr %34, align 8
  %.not30 = icmp eq ptr %35, %0
  br i1 %.not30, label %40, label %36

36:                                               ; preds = %32
  %37 = add nsw i32 %.02733, 1
  %38 = sext i32 %.02733 to i64
  %39 = getelementptr inbounds ptr, ptr %33, i64 %38
  store ptr %35, ptr %39, align 8
  br label %40

40:                                               ; preds = %32, %36
  %.1 = phi i32 [ %37, %36 ], [ %.02733, %32 ]
  %indvars.iv.next = add nsw i64 %indvars.iv, 1
  %41 = icmp slt i64 %indvars.iv.next, %31
  br i1 %41, label %32, label %._crit_edge.loopexit, !llvm.loop !12

._crit_edge.loopexit:                             ; preds = %40
  %.pre = load i32, ptr %23, align 8
  br label %._crit_edge

._crit_edge:                                      ; preds = %._crit_edge.loopexit, %Nwk_ObjFindFanin.exit
  %42 = phi i32 [ %.pre, %._crit_edge.loopexit ], [ %24, %Nwk_ObjFindFanin.exit ]
  %43 = add nsw i32 %42, -1
  store i32 %43, ptr %23, align 8
  %44 = getelementptr inbounds nuw i8, ptr %2, i64 60
  %45 = load i32, ptr %44, align 4
  %46 = getelementptr inbounds nuw i8, ptr %2, i64 64
  %47 = load i32, ptr %46, align 8
  %48 = add nsw i32 %47, %45
  %49 = getelementptr inbounds nuw i8, ptr %2, i64 68
  %50 = load i32, ptr %49, align 4
  %.not = icmp eq i32 %48, %50
  br i1 %.not, label %51, label %68

51:                                               ; preds = %._crit_edge
  %52 = getelementptr inbounds nuw i8, ptr %2, i64 72
  %53 = load ptr, ptr %52, align 8
  %54 = load ptr, ptr %2, align 8
  %55 = getelementptr inbounds nuw i8, ptr %54, i64 88
  %56 = load ptr, ptr %55, align 8
  %57 = shl i32 %48, 4
  %58 = tail call ptr @Aig_MmFlexEntryFetch(ptr noundef %56, i32 noundef %57) #11
  store ptr %58, ptr %52, align 8
  %59 = load i32, ptr %49, align 4
  %60 = sext i32 %59 to i64
  %61 = shl nsw i64 %60, 3
  tail call void @llvm.memmove.p0.p0.i64(ptr align 8 %58, ptr align 8 %53, i64 %61, i1 false)
  %62 = load i32, ptr %49, align 4
  %63 = shl nsw i32 %62, 1
  store i32 %63, ptr %49, align 4
  %64 = load ptr, ptr %2, align 8
  %65 = getelementptr inbounds nuw i8, ptr %64, i64 108
  %66 = load i32, ptr %65, align 4
  %67 = add nsw i32 %66, 1
  store i32 %67, ptr %65, align 4
  %.pre37 = load i32, ptr %44, align 4
  %.pre38 = load i32, ptr %46, align 8
  %.pre39 = add nsw i32 %.pre38, %.pre37
  br label %68

68:                                               ; preds = %51, %._crit_edge
  %.pre-phi = phi i32 [ %.pre39, %51 ], [ %48, %._crit_edge ]
  %69 = phi i32 [ %.pre38, %51 ], [ %47, %._crit_edge ]
  %70 = getelementptr inbounds nuw i8, ptr %2, i64 72
  %71 = load ptr, ptr %70, align 8
  %72 = add nsw i32 %69, 1
  store i32 %72, ptr %46, align 8
  %73 = sext i32 %.pre-phi to i64
  %74 = getelementptr inbounds ptr, ptr %71, i64 %73
  store ptr %0, ptr %74, align 8
  br label %75

75:                                               ; preds = %68, %Nwk_ObjFindFanin.exit.thread
  ret void
}